target datalayout = "e-m:e-p270:32:32-p271:32:32-p272:64:64-i64:64-i128:128-f80:128-n8:16:32:64-S128"
target triple = "x86_64-pc-linux-gnu"

%struct.DirectoryMethodData = type { %struct.WalWriteMethod, ptr }
%struct.WalWriteMethod = type { ptr, i32, i32, i8, ptr, i32 }

@.str.3 = private unnamed_addr constant [6 x i8] c"%s/%s\00", align 1

; Function Attrs: nounwind uwtable
define internal zeroext i1 @dir_existsfile(ptr noundef %0, ptr noundef %1) #0 {
  %3 = alloca i1, align 1
  %4 = alloca ptr, align 8
  %5 = alloca ptr, align 8
  %6 = alloca ptr, align 8
  %7 = alloca [1024 x i8], align 16
  %8 = alloca i32, align 4
  %9 = alloca i32, align 4
  store ptr %0, ptr %4, align 8
  store ptr %1, ptr %5, align 8
  call void @llvm.lifetime.start.p0(i64 8, ptr %6) #9
  %10 = load ptr, ptr %4, align 8
  store ptr %10, ptr %6, align 8
  call void @llvm.lifetime.start.p0(i64 1024, ptr %7) #9
  call void @llvm.lifetime.start.p0(i64 4, ptr %8) #9
  %11 = load ptr, ptr %4, align 8
  %12 = getelementptr inbounds nuw %struct.WalWriteMethod, ptr %11, i32 0, i32 4
  store ptr null, ptr %12, align 8
  %13 = load ptr, ptr %4, align 8
  %14 = getelementptr inbounds nuw %struct.WalWriteMethod, ptr %13, i32 0, i32 5
  store i32 0, ptr %14, align 8
  %15 = getelementptr inbounds [1024 x i8], ptr %7, i64 0, i64 0
  %16 = load ptr, ptr %6, align 8
  %17 = getelementptr inbounds nuw %struct.DirectoryMethodData, ptr %16, i32 0, i32 1
  %18 = load ptr, ptr %17, align 8
  %19 = load ptr, ptr %5, align 8
  %20 = call i32 (ptr, i64, ptr, ...) @pg_snprintf(ptr noundef %15, i64 noundef 1024, ptr noundef @.str.3, ptr noundef %18, ptr noundef %19)
  %21 = getelementptr inbounds [1024 x i8], ptr %7, i64 0, i64 0
  %22 = call i32 (ptr, i32, ...) @open(ptr noundef %21, i32 noundef 0, i32 noundef 0)
  store i32 %22, ptr %8, align 4
  %23 = load i32, ptr %8, align 4
  %24 = icmp slt i32 %23, 0
  br i1 %24, label %25, label %26

25:                                               ; preds = %2
  store i1 false, ptr %3, align 1
  store i32 1, ptr %9, align 4
  br label %29

26:                                               ; preds = %2
  %27 = load i32, ptr %8, align 4
  %28 = call i32 @close(i32 noundef %27)
  store i1 true, ptr %3, align 1
  store i32 1, ptr %9, align 4
  br label %29

29:                                               ; preds = %26, %25
  call void @llvm.lifetime.end.p0(i64 4, ptr %8) #9
  call void @llvm.lifetime.end.p0(i64 1024, ptr %7) #9
  call void @llvm.lifetime.end.p0(i64 8, ptr %6) #9
  %30 = load i1, ptr %3, align 1
  ret i1 %30
}