; Function Attrs: nounwind uwtable
define internal noundef zeroext i1 @dir_existsfile(ptr noundef captures(none) initializes((24, 36)) %0, ptr noundef %1) #0 {
  %3 = alloca [1024 x i8], align 16
  call void @llvm.lifetime.start.p0(i64 1024, ptr nonnull %3) #12
  %4 = getelementptr inbounds nuw i8, ptr %0, i64 24
  store ptr null, ptr %4, align 8
  %5 = getelementptr inbounds nuw i8, ptr %0, i64 32
  store i32 0, ptr %5, align 8
  %6 = getelementptr inbounds nuw i8, ptr %0, i64 40
  %7 = load ptr, ptr %6, align 8
  %8 = call i32 (ptr, i64, ptr, ...) @pg_snprintf(ptr noundef nonnull %3, i64 noundef 1024, ptr noundef nonnull @.str.3, ptr noundef %7, ptr noundef %1) #12
  %9 = call i32 (ptr, i32, ...) @open(ptr noundef nonnull %3, i32 noundef 0, i32 noundef 0) #12
  %10 = icmp sgt i32 %9, -1
  br i1 %10, label %11, label %13

11:                                               ; preds = %2
  %12 = call i32 @close(i32 noundef %9) #12
  br label %13

13:                                               ; preds = %2, %11
  call void @llvm.lifetime.end.p0(i64 1024, ptr nonnull %3) #12
  ret i1 %10
}